target datalayout = "e-m:e-p270:32:32-p271:32:32-p272:64:64-i64:64-i128:128-f80:128-n8:16:32:64-S128"
target triple = "x86_64-pc-linux-gnu"

%struct.archive_write = type { %struct.archive, i32, i64, i64, ptr, i64, ptr, ptr, ptr, ptr, ptr, i32, i32, ptr, ptr, ptr, ptr, ptr, ptr, ptr, ptr, ptr, ptr, ptr, ptr, ptr, ptr }
%struct.archive = type { i32, i32, ptr, i32, ptr, i32, i32, ptr, %struct.archive_string, ptr, i32, i32, ptr, ptr, i64, i64, i64, i8, i64 }
%struct.archive_string = type { ptr, i64, i64 }
%struct.cpio = type { i64, i64, ptr, i64, i64, ptr, ptr, i32 }

; Function Attrs: nounwind uwtable
define internal i32 @archive_write_odc_free(ptr noundef %0) #0 {
  %2 = alloca ptr, align 8
  %3 = alloca ptr, align 8
  store ptr %0, ptr %2, align 8, !tbaa !9
  call void @llvm.lifetime.start.p0(i64 8, ptr %3) #9
  %4 = load ptr, ptr %2, align 8, !tbaa !9
  %5 = getelementptr inbounds nuw %struct.archive_write, ptr %4, i32 0, i32 15
  %6 = load ptr, ptr %5, align 8, !tbaa !24
  store ptr %6, ptr %3, align 8, !tbaa !22
  %7 = load ptr, ptr %3, align 8, !tbaa !22
  %8 = getelementptr inbounds nuw %struct.cpio, ptr %7, i32 0, i32 2
  %9 = load ptr, ptr %8, align 8, !tbaa !42
  call void @free(ptr noundef %9) #9
  %10 = load ptr, ptr %3, align 8, !tbaa !22
  call void @free(ptr noundef %10) #9
  %11 = load ptr, ptr %2, align 8, !tbaa !9
  %12 = getelementptr inbounds nuw %struct.archive_write, ptr %11, i32 0, i32 15
  store ptr null, ptr %12, align 8, !tbaa !24
  call void @llvm.lifetime.end.p0(i64 8, ptr %3) #9
  ret i32 0
}