; Function Attrs: mustprogress nounwind willreturn uwtable
define internal noundef i32 @archive_write_odc_free(ptr noundef captures(none) %0) #4 {
  %2 = getelementptr inbounds nuw i8, ptr %0, i64 248
  %3 = load ptr, ptr %2, align 8, !tbaa !17
  %4 = getelementptr inbounds nuw i8, ptr %3, i64 16
  %5 = load ptr, ptr %4, align 8, !tbaa !34
  tail call void @free(ptr noundef %5) #12
  tail call void @free(ptr noundef %3) #12
  store ptr null, ptr %2, align 8, !tbaa !17
  ret i32 0
}